target datalayout = "e-m:e-p270:32:32-p271:32:32-p272:64:64-i64:64-i128:128-f80:128-n8:16:32:64-S128"
target triple = "x86_64-pc-linux-gnu"

%struct.config_generic = type { ptr, i32, i32, ptr, ptr, i32, i32, i32, i32, i32, i32, i32, i32, i32, ptr, ptr, %struct.dlist_node, %struct.slist_node, %struct.slist_node, ptr, ptr, i32 }
%struct.dlist_node = type { ptr, ptr }
%struct.slist_node = type { ptr }
%struct.config_string = type { %struct.config_generic, ptr, ptr, ptr, ptr, ptr, ptr, ptr }
%struct.slist_head = type { %struct.slist_node }
%struct.guc_stack = type { ptr, i32, i32, i32, i32, i32, i32, i32, %struct.config_var_value, %struct.config_var_value }
%struct.config_var_value = type { %union.config_var_val, ptr }
%union.config_var_val = type { double }

@guc_stack_list = internal global %struct.slist_head zeroinitializer, align 8

; Function Attrs: nounwind uwtable
define dso_local i32 @set_config_option_ext(ptr noundef %0, ptr noundef %1, i32 noundef %2, i32 noundef %3, i32 noundef %4, i32 noundef %5, i1 noundef zeroext %6, i32 noundef %7, i1 noundef zeroext %8) #0 {
  %10 = alloca ptr, align 8
  %11 = alloca ptr, align 8
  %12 = alloca i32, align 4
  %13 = alloca i32, align 4
  %14 = alloca i32, align 4
  %15 = alloca i32, align 4
  %16 = alloca i8, align 1
  %17 = alloca i32, align 4
  %18 = alloca i8, align 1
  store ptr %0, ptr %10, align 8
  store ptr %1, ptr %11, align 8
  store i32 %2, ptr %12, align 4
  store i32 %3, ptr %13, align 4
  store i32 %4, ptr %14, align 4
  store i32 %5, ptr %15, align 4
  %19 = zext i1 %6 to i8
  store i8 %19, ptr %16, align 1
  store i32 %7, ptr %17, align 4
  %20 = zext i1 %8 to i8
  store i8 %20, ptr %18, align 1
  %21 = load ptr, ptr %10, align 8
  %22 = load ptr, ptr %11, align 8
  %23 = load i32, ptr %12, align 4
  %24 = load i32, ptr %13, align 4
  %25 = load i32, ptr %14, align 4
  %26 = load i32, ptr %15, align 4
  %27 = load i8, ptr %16, align 1, !range !4, !noundef !5
  %28 = trunc i8 %27 to i1
  %29 = load i32, ptr %17, align 4
  %30 = load i8, ptr %18, align 1, !range !4, !noundef !5
  %31 = trunc i8 %30 to i1
  %32 = call i32 @set_config_with_handle(ptr noundef %21, ptr noundef null, ptr noundef %22, i32 noundef %23, i32 noundef %24, i32 noundef %25, i32 noundef %26, i1 noundef zeroext %28, i32 noundef %29, i1 noundef zeroext %31)
  ret i32 %32
}

; Function Attrs: nounwind uwtable
define internal void @reapply_stacked_values(ptr noundef %0, ptr noundef %1, ptr noundef %2, ptr noundef %3, i32 noundef %4, i32 noundef %5, i32 noundef %6) #0 {
  %8 = alloca ptr, align 8
  %9 = alloca ptr, align 8
  %10 = alloca ptr, align 8
  %11 = alloca ptr, align 8
  %12 = alloca i32, align 4
  %13 = alloca i32, align 4
  %14 = alloca i32, align 4
  %15 = alloca ptr, align 8
  %16 = alloca ptr, align 8
  store ptr %0, ptr %8, align 8
  store ptr %1, ptr %9, align 8
  store ptr %2, ptr %10, align 8
  store ptr %3, ptr %11, align 8
  store i32 %4, ptr %12, align 4
  store i32 %5, ptr %13, align 4
  store i32 %6, ptr %14, align 4
  call void @llvm.lifetime.start.p0(i64 8, ptr %15) #16
  %17 = load ptr, ptr %8, align 8
  %18 = getelementptr inbounds nuw %struct.config_generic, ptr %17, i32 0, i32 0
  %19 = load ptr, ptr %18, align 8
  store ptr %19, ptr %15, align 8
  call void @llvm.lifetime.start.p0(i64 8, ptr %16) #16
  %20 = load ptr, ptr %8, align 8
  %21 = getelementptr inbounds nuw %struct.config_generic, ptr %20, i32 0, i32 14
  %22 = load ptr, ptr %21, align 8
  store ptr %22, ptr %16, align 8
  %23 = load ptr, ptr %10, align 8
  %24 = icmp ne ptr %23, null
  br i1 %24, label %25, label %102

25:                                               ; preds = %7
  %26 = load ptr, ptr %8, align 8
  %27 = load ptr, ptr %9, align 8
  %28 = load ptr, ptr %10, align 8
  %29 = getelementptr inbounds nuw %struct.guc_stack, ptr %28, i32 0, i32 0
  %30 = load ptr, ptr %29, align 8
  %31 = load ptr, ptr %10, align 8
  %32 = getelementptr inbounds nuw %struct.guc_stack, ptr %31, i32 0, i32 8
  %33 = getelementptr inbounds nuw %struct.config_var_value, ptr %32, i32 0, i32 0
  %34 = load ptr, ptr %33, align 8
  %35 = load ptr, ptr %10, align 8
  %36 = getelementptr inbounds nuw %struct.guc_stack, ptr %35, i32 0, i32 4
  %37 = load i32, ptr %36, align 4
  %38 = load ptr, ptr %10, align 8
  %39 = getelementptr inbounds nuw %struct.guc_stack, ptr %38, i32 0, i32 3
  %40 = load i32, ptr %39, align 8
  %41 = load ptr, ptr %10, align 8
  %42 = getelementptr inbounds nuw %struct.guc_stack, ptr %41, i32 0, i32 6
  %43 = load i32, ptr %42, align 4
  call void @reapply_stacked_values(ptr noundef %26, ptr noundef %27, ptr noundef %30, ptr noundef %34, i32 noundef %37, i32 noundef %40, i32 noundef %43)
  %44 = load ptr, ptr %10, align 8
  %45 = getelementptr inbounds nuw %struct.guc_stack, ptr %44, i32 0, i32 2
  %46 = load i32, ptr %45, align 4
  switch i32 %46, label %87 [
    i32 0, label %47
    i32 1, label %54
    i32 2, label %61
    i32 3, label %68
  ]

47:                                               ; preds = %25
  %48 = load ptr, ptr %15, align 8
  %49 = load ptr, ptr %11, align 8
  %50 = load i32, ptr %12, align 4
  %51 = load i32, ptr %13, align 4
  %52 = load i32, ptr %14, align 4
  %53 = call i32 @set_config_option_ext(ptr noundef %48, ptr noundef %49, i32 noundef %50, i32 noundef %51, i32 noundef %52, i32 noundef 2, i1 noundef zeroext true, i32 noundef 19, i1 noundef zeroext false)
  br label %87

54:                                               ; preds = %25
  %55 = load ptr, ptr %15, align 8
  %56 = load ptr, ptr %11, align 8
  %57 = load i32, ptr %12, align 4
  %58 = load i32, ptr %13, align 4
  %59 = load i32, ptr %14, align 4
  %60 = call i32 @set_config_option_ext(ptr noundef %55, ptr noundef %56, i32 noundef %57, i32 noundef %58, i32 noundef %59, i32 noundef 0, i1 noundef zeroext true, i32 noundef 19, i1 noundef zeroext false)
  br label %87

61:                                               ; preds = %25
  %62 = load ptr, ptr %15, align 8
  %63 = load ptr, ptr %11, align 8
  %64 = load i32, ptr %12, align 4
  %65 = load i32, ptr %13, align 4
  %66 = load i32, ptr %14, align 4
  %67 = call i32 @set_config_option_ext(ptr noundef %62, ptr noundef %63, i32 noundef %64, i32 noundef %65, i32 noundef %66, i32 noundef 1, i1 noundef zeroext true, i32 noundef 19, i1 noundef zeroext false)
  br label %87

68:                                               ; preds = %25
  %69 = load ptr, ptr %15, align 8
  %70 = load ptr, ptr %10, align 8
  %71 = getelementptr inbounds nuw %struct.guc_stack, ptr %70, i32 0, i32 9
  %72 = getelementptr inbounds nuw %struct.config_var_value, ptr %71, i32 0, i32 0
  %73 = load ptr, ptr %72, align 8
  %74 = load ptr, ptr %10, align 8
  %75 = getelementptr inbounds nuw %struct.guc_stack, ptr %74, i32 0, i32 5
  %76 = load i32, ptr %75, align 8
  %77 = load ptr, ptr %10, align 8
  %78 = getelementptr inbounds nuw %struct.guc_stack, ptr %77, i32 0, i32 7
  %79 = load i32, ptr %78, align 8
  %80 = call i32 @set_config_option_ext(ptr noundef %69, ptr noundef %73, i32 noundef %76, i32 noundef 13, i32 noundef %79, i32 noundef 0, i1 noundef zeroext true, i32 noundef 19, i1 noundef zeroext false)
  %81 = load ptr, ptr %15, align 8
  %82 = load ptr, ptr %11, align 8
  %83 = load i32, ptr %12, align 4
  %84 = load i32, ptr %13, align 4
  %85 = load i32, ptr %14, align 4
  %86 = call i32 @set_config_option_ext(ptr noundef %81, ptr noundef %82, i32 noundef %83, i32 noundef %84, i32 noundef %85, i32 noundef 1, i1 noundef zeroext true, i32 noundef 19, i1 noundef zeroext false)
  br label %87

87:                                               ; preds = %25, %68, %61, %54, %47
  %88 = load ptr, ptr %8, align 8
  %89 = getelementptr inbounds nuw %struct.config_generic, ptr %88, i32 0, i32 14
  %90 = load ptr, ptr %89, align 8
  %91 = load ptr, ptr %16, align 8
  %92 = icmp ne ptr %90, %91
  br i1 %92, label %93, label %101

93:                                               ; preds = %87
  %94 = load ptr, ptr %10, align 8
  %95 = getelementptr inbounds nuw %struct.guc_stack, ptr %94, i32 0, i32 1
  %96 = load i32, ptr %95, align 8
  %97 = load ptr, ptr %8, align 8
  %98 = getelementptr inbounds nuw %struct.config_generic, ptr %97, i32 0, i32 14
  %99 = load ptr, ptr %98, align 8
  %100 = getelementptr inbounds nuw %struct.guc_stack, ptr %99, i32 0, i32 1
  store i32 %96, ptr %100, align 8
  br label %101

101:                                              ; preds = %93, %87
  br label %147

102:                                              ; preds = %7
  %103 = load ptr, ptr %11, align 8
  %104 = load ptr, ptr %9, align 8
  %105 = getelementptr inbounds nuw %struct.config_string, ptr %104, i32 0, i32 6
  %106 = load ptr, ptr %105, align 8
  %107 = icmp ne ptr %103, %106
  br i1 %107, label %129, label %108

108:                                              ; preds = %102
  %109 = load i32, ptr %12, align 4
  %110 = load ptr, ptr %9, align 8
  %111 = getelementptr inbounds nuw %struct.config_string, ptr %110, i32 0, i32 0
  %112 = getelementptr inbounds nuw %struct.config_generic, ptr %111, i32 0, i32 11
  %113 = load i32, ptr %112, align 8
  %114 = icmp ne i32 %109, %113
  br i1 %114, label %129, label %115

115:                                              ; preds = %108
  %116 = load i32, ptr %13, align 4
  %117 = load ptr, ptr %9, align 8
  %118 = getelementptr inbounds nuw %struct.config_string, ptr %117, i32 0, i32 0
  %119 = getelementptr inbounds nuw %struct.config_generic, ptr %118, i32 0, i32 9
  %120 = load i32, ptr %119, align 8
  %121 = icmp ne i32 %116, %120
  br i1 %121, label %129, label %122

122:                                              ; preds = %115
  %123 = load i32, ptr %14, align 4
  %124 = load ptr, ptr %9, align 8
  %125 = getelementptr inbounds nuw %struct.config_string, ptr %124, i32 0, i32 0
  %126 = getelementptr inbounds nuw %struct.config_generic, ptr %125, i32 0, i32 13
  %127 = load i32, ptr %126, align 8
  %128 = icmp ne i32 %123, %127
  br i1 %128, label %129, label %146

129:                                              ; preds = %122, %115, %108, %102
  %130 = load ptr, ptr %15, align 8
  %131 = load ptr, ptr %11, align 8
  %132 = load i32, ptr %12, align 4
  %133 = load i32, ptr %13, align 4
  %134 = load i32, ptr %14, align 4
  %135 = call i32 @set_config_option_ext(ptr noundef %130, ptr noundef %131, i32 noundef %132, i32 noundef %133, i32 noundef %134, i32 noundef 0, i1 noundef zeroext true, i32 noundef 19, i1 noundef zeroext false)
  %136 = load ptr, ptr %8, align 8
  %137 = getelementptr inbounds nuw %struct.config_generic, ptr %136, i32 0, i32 14
  %138 = load ptr, ptr %137, align 8
  %139 = icmp ne ptr %138, null
  br i1 %139, label %140, label %145

140:                                              ; preds = %129
  %141 = load ptr, ptr %8, align 8
  %142 = getelementptr inbounds nuw %struct.config_generic, ptr %141, i32 0, i32 17
  call void @slist_delete(ptr noundef @guc_stack_list, ptr noundef %142)
  %143 = load ptr, ptr %8, align 8
  %144 = getelementptr inbounds nuw %struct.config_generic, ptr %143, i32 0, i32 14
  store ptr null, ptr %144, align 8
  br label %145

145:                                              ; preds = %140, %129
  br label %146

146:                                              ; preds = %145, %122
  br label %147

147:                                              ; preds = %146, %101
  call void @llvm.lifetime.end.p0(i64 8, ptr %16) #16
  call void @llvm.lifetime.end.p0(i64 8, ptr %15) #16
  ret void
}