; Function Attrs: nounwind uwtable
define internal fastcc void @reapply_stacked_values(ptr noundef %0, ptr noundef readonly captures(none) %1, ptr noundef readonly captures(address_is_null) %2, ptr noundef %3, i32 noundef %4, i32 noundef %5, i32 noundef %6) unnamed_addr #0 {
  %8 = load ptr, ptr %0, align 8
  %9 = getelementptr inbounds nuw i8, ptr %0, i64 72
  %10 = load ptr, ptr %9, align 8
  %.not = icmp eq ptr %2, null
  br i1 %.not, label %40, label %11

11:                                               ; preds = %7
  %12 = load ptr, ptr %2, align 8
  %13 = getelementptr inbounds nuw i8, ptr %2, i64 40
  %14 = load ptr, ptr %13, align 8
  %15 = getelementptr inbounds nuw i8, ptr %2, i64 20
  %16 = load i32, ptr %15, align 4
  %17 = getelementptr inbounds nuw i8, ptr %2, i64 16
  %18 = load i32, ptr %17, align 8
  %19 = getelementptr inbounds nuw i8, ptr %2, i64 28
  %20 = load i32, ptr %19, align 4
  tail call fastcc void @reapply_stacked_values(ptr noundef nonnull %0, ptr noundef %1, ptr noundef %12, ptr noundef %14, i32 noundef %16, i32 noundef %18, i32 noundef %20)
  %21 = getelementptr inbounds nuw i8, ptr %2, i64 12
  %22 = load i32, ptr %21, align 4
  switch i32 %22, label %34 [
    i32 0, label %.sink.split
    i32 1, label %23
    i32 2, label %24
    i32 3, label %25
  ]

23:                                               ; preds = %11
  br label %.sink.split

24:                                               ; preds = %11
  br label %.sink.split

25:                                               ; preds = %11
  %26 = getelementptr inbounds nuw i8, ptr %2, i64 56
  %27 = load ptr, ptr %26, align 8
  %28 = getelementptr inbounds nuw i8, ptr %2, i64 24
  %29 = load i32, ptr %28, align 8
  %30 = getelementptr inbounds nuw i8, ptr %2, i64 32
  %31 = load i32, ptr %30, align 8
  %32 = tail call range(i32 -1, 2) i32 @set_config_with_handle(ptr noundef %8, ptr noundef null, ptr noundef %27, i32 noundef %29, i32 noundef 13, i32 noundef %31, i32 noundef 0, i1 noundef zeroext true, i32 noundef 19, i1 noundef zeroext false)
  br label %.sink.split

.sink.split:                                      ; preds = %11, %23, %24, %25
  %.sink = phi i32 [ 1, %25 ], [ 1, %24 ], [ 0, %23 ], [ 2, %11 ]
  %33 = tail call range(i32 -1, 2) i32 @set_config_with_handle(ptr noundef %8, ptr noundef null, ptr noundef %3, i32 noundef %4, i32 noundef %5, i32 noundef %6, i32 noundef %.sink, i1 noundef zeroext true, i32 noundef 19, i1 noundef zeroext false)
  br label %34

34:                                               ; preds = %.sink.split, %11
  %35 = load ptr, ptr %9, align 8
  %.not60 = icmp eq ptr %35, %10
  br i1 %.not60, label %57, label %36

36:                                               ; preds = %34
  %37 = getelementptr inbounds nuw i8, ptr %2, i64 8
  %38 = load i32, ptr %37, align 8
  %39 = getelementptr inbounds nuw i8, ptr %35, i64 8
  store i32 %38, ptr %39, align 8
  br label %57

40:                                               ; preds = %7
  %41 = getelementptr inbounds nuw i8, ptr %1, i64 184
  %42 = load ptr, ptr %41, align 8
  %.not55 = icmp eq ptr %3, %42
  br i1 %.not55, label %43, label %52

43:                                               ; preds = %40
  %44 = getelementptr inbounds nuw i8, ptr %1, i64 56
  %45 = load i32, ptr %44, align 8
  %.not56 = icmp eq i32 %4, %45
  br i1 %.not56, label %46, label %52

46:                                               ; preds = %43
  %47 = getelementptr inbounds nuw i8, ptr %1, i64 48
  %48 = load i32, ptr %47, align 8
  %.not57 = icmp eq i32 %5, %48
  br i1 %.not57, label %49, label %52

49:                                               ; preds = %46
  %50 = getelementptr inbounds nuw i8, ptr %1, i64 64
  %51 = load i32, ptr %50, align 8
  %.not58 = icmp eq i32 %6, %51
  br i1 %.not58, label %57, label %52

52:                                               ; preds = %49, %46, %43, %40
  %53 = tail call range(i32 -1, 2) i32 @set_config_with_handle(ptr noundef %8, ptr noundef null, ptr noundef %3, i32 noundef %4, i32 noundef %5, i32 noundef %6, i32 noundef 0, i1 noundef zeroext true, i32 noundef 19, i1 noundef zeroext false)
  %54 = load ptr, ptr %9, align 8
  %.not59 = icmp eq ptr %54, null
  br i1 %.not59, label %57, label %55

55:                                               ; preds = %52
  %56 = getelementptr inbounds nuw i8, ptr %0, i64 104
  tail call void @slist_delete(ptr noundef nonnull @guc_stack_list, ptr noundef nonnull %56) #29
  store ptr null, ptr %9, align 8
  br label %57

57:                                               ; preds = %49, %55, %52, %34, %36
  ret void
}